; Function Attrs: nounwind uwtable
define ptr @l_Lean_PersistentHashMap_findEntry_x3f___at___private_Lean_Meta_Tactic_Grind_Inv_0__Lean_Meta_Grind_checkEqc___spec__4(ptr noundef %0, ptr noundef %1, ptr noundef %2) local_unnamed_addr #0 {
  %4 = getelementptr inbounds nuw i8, ptr %0, i64 24
  %5 = load ptr, ptr %4, align 8, !tbaa !4
  %6 = ptrtoint ptr %5 to i64
  %7 = and i64 %6, 1
  %.not = icmp eq i64 %7, 0
  br i1 %.not, label %8, label %lean_inc.exit10

8:                                                ; preds = %3
  %.val.i = load i32, ptr %5, align 4, !tbaa !8
  %9 = icmp sgt i32 %.val.i, 0
  br i1 %9, label %10, label %12, !prof !11

10:                                               ; preds = %8
  %11 = add nuw i32 %.val.i, 1
  store i32 %11, ptr %5, align 4, !tbaa !8
  br label %lean_inc.exit10

12:                                               ; preds = %8
  %.not.i = icmp eq i32 %.val.i, 0
  br i1 %.not.i, label %lean_inc.exit10, label %13

13:                                               ; preds = %12
  tail call void @lean_inc_ref_cold(ptr noundef nonnull %5) #4
  br label %lean_inc.exit10

lean_inc.exit10:                                  ; preds = %13, %12, %10, %3
  %14 = ptrtoint ptr %2 to i64
  %15 = and i64 %14, 1
  %.not14 = icmp eq i64 %15, 0
  br i1 %.not14, label %16, label %lean_inc.exit

16:                                               ; preds = %lean_inc.exit10
  %.val.i11 = load i32, ptr %2, align 4, !tbaa !8
  %17 = icmp sgt i32 %.val.i11, 0
  br i1 %17, label %18, label %20, !prof !11

18:                                               ; preds = %16
  %19 = add nuw i32 %.val.i11, 1
  store i32 %19, ptr %2, align 4, !tbaa !8
  br label %lean_inc.exit

20:                                               ; preds = %16
  %.not.i12 = icmp eq i32 %.val.i11, 0
  br i1 %.not.i12, label %lean_inc.exit, label %21

21:                                               ; preds = %20
  tail call void @lean_inc_ref_cold(ptr noundef nonnull %2) #4
  br label %lean_inc.exit

lean_inc.exit:                                    ; preds = %21, %20, %18, %lean_inc.exit10
  %22 = tail call i64 @l___private_Lean_Meta_Tactic_Grind_Types_0__Lean_Meta_Grind_congrHash(ptr noundef %5, ptr noundef %2) #4
  %23 = tail call ptr @l_Lean_PersistentHashMap_findEntryAux___at___private_Lean_Meta_Tactic_Grind_Inv_0__Lean_Meta_Grind_checkEqc___spec__5(ptr noundef nonnull %0, ptr noundef %1, i64 noundef %22, ptr noundef %2)
  ret ptr %23
}